target datalayout = "e-m:e-p270:32:32-p271:32:32-p272:64:64-i64:64-i128:128-f80:128-n8:16:32:64-S128"
target triple = "x86_64-pc-linux-gnu"

%struct.slurmdbd_conf_t = type { ptr, ptr, i16, ptr, ptr, ptr, i16, i16, ptr, i32, ptr, i32, ptr, i16, ptr, i32, i32, i32, i32, i32, i32, i32, ptr, i16, i16, i16 }
%struct.config_key_pair_t = type { ptr, ptr }

@slurmdbd_conf = external global ptr, align 8
@.str.134 = private unnamed_addr constant [11 x i8] c"%-22s = %s\00", align 1

; Function Attrs: nounwind uwtable
define dso_local void @log_config() #0 {
  %1 = alloca ptr, align 8
  %2 = alloca ptr, align 8
  %3 = alloca ptr, align 8
  %4 = alloca i32, align 4
  call void @llvm.lifetime.start.p0(i64 8, ptr %1) #7
  call void @llvm.lifetime.start.p0(i64 8, ptr %2) #7
  call void @llvm.lifetime.start.p0(i64 8, ptr %3) #7
  %5 = load ptr, ptr @slurmdbd_conf, align 8
  %6 = getelementptr inbounds nuw %struct.slurmdbd_conf_t, ptr %5, i32 0, i32 7
  %7 = load i16, ptr %6, align 2
  %8 = zext i16 %7 to i32
  %9 = icmp slt i32 %8, 6
  br i1 %9, label %10, label %11

10:                                               ; preds = %0
  store i32 1, ptr %4, align 4
  br label %46

11:                                               ; preds = %0
  %12 = call ptr @dump_config()
  store ptr %12, ptr %1, align 8
  %13 = load ptr, ptr %1, align 8
  %14 = call ptr @list_iterator_create(ptr noundef %13)
  store ptr %14, ptr %3, align 8
  br label %15

15:                                               ; preds = %35, %11
  %16 = load ptr, ptr %3, align 8
  %17 = call ptr @list_next(ptr noundef %16)
  store ptr %17, ptr %2, align 8
  %18 = icmp ne ptr %17, null
  br i1 %18, label %19, label %36

19:                                               ; preds = %15
  br label %20

20:                                               ; preds = %19
  br label %21

21:                                               ; preds = %20
  %22 = call i32 @get_log_level()
  %23 = icmp sge i32 %22, 6
  br i1 %23, label %24, label %31

24:                                               ; preds = %21
  %25 = load ptr, ptr %2, align 8
  %26 = getelementptr inbounds nuw %struct.config_key_pair_t, ptr %25, i32 0, i32 0
  %27 = load ptr, ptr %26, align 8
  %28 = load ptr, ptr %2, align 8
  %29 = getelementptr inbounds nuw %struct.config_key_pair_t, ptr %28, i32 0, i32 1
  %30 = load ptr, ptr %29, align 8
  call void (i32, ptr, ...) @log_var(i32 noundef 6, ptr noundef @.str.134, ptr noundef %27, ptr noundef %30)
  br label %31

31:                                               ; preds = %24, %21
  br label %32

32:                                               ; preds = %31
  br label %33

33:                                               ; preds = %32
  br label %34

34:                                               ; preds = %33
  br label %35

35:                                               ; preds = %34
  br label %15, !llvm.loop !10

36:                                               ; preds = %15
  %37 = load ptr, ptr %3, align 8
  call void @list_iterator_destroy(ptr noundef %37)
  br label %38

38:                                               ; preds = %36
  %39 = load ptr, ptr %1, align 8
  %40 = icmp ne ptr %39, null
  br i1 %40, label %41, label %43

41:                                               ; preds = %38
  %42 = load ptr, ptr %1, align 8
  call void @list_destroy(ptr noundef %42)
  br label %43

43:                                               ; preds = %41, %38
  store ptr null, ptr %1, align 8
  br label %44

44:                                               ; preds = %43
  br label %45

45:                                               ; preds = %44
  store i32 0, ptr %4, align 4
  br label %46

46:                                               ; preds = %45, %10
  call void @llvm.lifetime.end.p0(i64 8, ptr %3) #7
  call void @llvm.lifetime.end.p0(i64 8, ptr %2) #7
  call void @llvm.lifetime.end.p0(i64 8, ptr %1) #7
  %47 = load i32, ptr %4, align 4
  switch i32 %47, label %49 [
    i32 0, label %48
    i32 1, label %48
  ]

48:                                               ; preds = %46, %46
  ret void

49:                                               ; preds = %46
  unreachable
}