; Function Attrs: nounwind uwtable
define dso_local void @log_config() local_unnamed_addr #0 {
  %1 = load ptr, ptr @slurmdbd_conf, align 8
  %2 = getelementptr inbounds nuw i8, ptr %1, i64 50
  %3 = load i16, ptr %2, align 2
  %4 = icmp ult i16 %3, 6
  br i1 %4, label %19, label %5

5:                                                ; preds = %0
  %6 = tail call ptr @dump_config()
  %7 = tail call ptr @list_iterator_create(ptr noundef %6) #10
  %8 = tail call ptr @list_next(ptr noundef %7) #10
  %.not9 = icmp eq ptr %8, null
  br i1 %.not9, label %._crit_edge, label %.lr.ph

.lr.ph:                                           ; preds = %5, %16
  %9 = phi ptr [ %17, %16 ], [ %8, %5 ]
  %10 = tail call i32 @get_log_level() #10
  %11 = icmp sgt i32 %10, 5
  br i1 %11, label %12, label %16

12:                                               ; preds = %.lr.ph
  %13 = load ptr, ptr %9, align 8
  %14 = getelementptr inbounds nuw i8, ptr %9, i64 8
  %15 = load ptr, ptr %14, align 8
  tail call void (i32, ptr, ...) @log_var(i32 noundef 6, ptr noundef nonnull @.str.134, ptr noundef %13, ptr noundef %15) #10
  br label %16

16:                                               ; preds = %12, %.lr.ph
  %17 = tail call ptr @list_next(ptr noundef %7) #10
  %.not = icmp eq ptr %17, null
  br i1 %.not, label %._crit_edge, label %.lr.ph, !llvm.loop !10

._crit_edge:                                      ; preds = %16, %5
  tail call void @list_iterator_destroy(ptr noundef %7) #10
  %.not8 = icmp eq ptr %6, null
  br i1 %.not8, label %19, label %18

18:                                               ; preds = %._crit_edge
  tail call void @list_destroy(ptr noundef nonnull %6) #10
  br label %19

19:                                               ; preds = %._crit_edge, %18, %0
  ret void
}